; ModuleID = '29/1687.c'
source_filename = "29/1687.c"
target datalayout = "e-m:e-p270:32:32-p271:32:32-p272:64:64-i64:64-f80:128-n8:16:32:64-S128"
target triple = "x86_64-pc-linux-gnu"

@.str = private unnamed_addr constant [3 x i8] c"%d\00", align 1
@.str.1 = private unnamed_addr constant [7 x i8] c"%.3lf\0A\00", align 1

; Function Attrs: noinline nounwind uwtable
define dso_local i32 @main() #0 {
  %1 = alloca i32, align 4
  %2 = alloca i32, align 4
  %3 = alloca i32, align 4
  %4 = alloca i32, align 4
  %5 = alloca [999 x i32], align 16
  %6 = alloca double, align 8
  %7 = alloca [999 x double], align 16
  store i32 0, i32* %1, align 4
  %8 = call i32 (i8*, ...) @__isoc99_scanf(i8* getelementptr inbounds ([3 x i8], [3 x i8]* @.str, i64 0, i64 0), i32* %2)
  store i32 1, i32* %3, align 4
  br label %9

9:                                                ; preds = %19, %0
  %10 = load i32, i32* %3, align 4
  %11 = load i32, i32* %2, align 4
  %12 = icmp sle i32 %10, %11
  br i1 %12, label %13, label %22

13:                                               ; preds = %9
  %14 = load i32, i32* %3, align 4
  %15 = sub nsw i32 %14, 1
  %16 = sext i32 %15 to i64
  %17 = getelementptr inbounds [999 x i32], [999 x i32]* %5, i64 0, i64 %16
  %18 = call i32 (i8*, ...) @__isoc99_scanf(i8* getelementptr inbounds ([3 x i8], [3 x i8]* @.str, i64 0, i64 0), i32* %17)
  br label %19

19:                                               ; preds = %13
  %20 = load i32, i32* %3, align 4
  %21 = add nsw i32 %20, 1
  store i32 %21, i32* %3, align 4
  br label %9

22:                                               ; preds = %9
  %23 = getelementptr inbounds [999 x double], [999 x double]* %7, i64 0, i64 0
  store double 1.000000e+00, double* %23, align 16
  %24 = getelementptr inbounds [999 x double], [999 x double]* %7, i64 0, i64 1
  store double 2.000000e+00, double* %24, align 8
  store i32 3, i32* %3, align 4
  br label %25

25:                                               ; preds = %44, %22
  %26 = load i32, i32* %3, align 4
  %27 = icmp sle i32 %26, 999
  br i1 %27, label %28, label %47

28:                                               ; preds = %25
  %29 = load i32, i32* %3, align 4
  %30 = sub nsw i32 %29, 2
  %31 = sext i32 %30 to i64
  %32 = getelementptr inbounds [999 x double], [999 x double]* %7, i64 0, i64 %31
  %33 = load double, double* %32, align 8
  %34 = load i32, i32* %3, align 4
  %35 = sub nsw i32 %34, 3
  %36 = sext i32 %35 to i64
  %37 = getelementptr inbounds [999 x double], [999 x double]* %7, i64 0, i64 %36
  %38 = load double, double* %37, align 8
  %39 = fadd double %33, %38
  %40 = load i32, i32* %3, align 4
  %41 = sub nsw i32 %40, 1
  %42 = sext i32 %41 to i64
  %43 = getelementptr inbounds [999 x double], [999 x double]* %7, i64 0, i64 %42
  store double %39, double* %43, align 8
  br label %44

44:                                               ; preds = %28
  %45 = load i32, i32* %3, align 4
  %46 = add nsw i32 %45, 1
  store i32 %46, i32* %3, align 4
  br label %25

47:                                               ; preds = %25
  store i32 1, i32* %3, align 4
  br label %48

48:                                               ; preds = %80, %47
  %49 = load i32, i32* %3, align 4
  %50 = load i32, i32* %2, align 4
  %51 = icmp sle i32 %49, %50
  br i1 %51, label %52, label %83

52:                                               ; preds = %48
  store double 0.000000e+00, double* %6, align 8
  store i32 1, i32* %4, align 4
  br label %53

53:                                               ; preds = %74, %52
  %54 = load i32, i32* %4, align 4
  %55 = load i32, i32* %3, align 4
  %56 = sub nsw i32 %55, 1
  %57 = sext i32 %56 to i64
  %58 = getelementptr inbounds [999 x i32], [999 x i32]* %5, i64 0, i64 %57
  %59 = load i32, i32* %58, align 4
  %60 = icmp sle i32 %54, %59
  br i1 %60, label %61, label %77

61:                                               ; preds = %53
  %62 = load double, double* %6, align 8
  %63 = load i32, i32* %4, align 4
  %64 = sext i32 %63 to i64
  %65 = getelementptr inbounds [999 x double], [999 x double]* %7, i64 0, i64 %64
  %66 = load double, double* %65, align 8
  %67 = load i32, i32* %4, align 4
  %68 = sub nsw i32 %67, 1
  %69 = sext i32 %68 to i64
  %70 = getelementptr inbounds [999 x double], [999 x double]* %7, i64 0, i64 %69
  %71 = load double, double* %70, align 8
  %72 = fdiv double %66, %71
  %73 = fadd double %62, %72
  store double %73, double* %6, align 8
  br label %74

74:                                               ; preds = %61
  %75 = load i32, i32* %4, align 4
  %76 = add nsw i32 %75, 1
  store i32 %76, i32* %4, align 4
  br label %53

77:                                               ; preds = %53
  %78 = load double, double* %6, align 8
  %79 = call i32 (i8*, ...) @printf(i8* getelementptr inbounds ([7 x i8], [7 x i8]* @.str.1, i64 0, i64 0), double %78)
  br label %80

80:                                               ; preds = %77
  %81 = load i32, i32* %3, align 4
  %82 = add nsw i32 %81, 1
  store i32 %82, i32* %3, align 4
  br label %48

83:                                               ; preds = %48
  ret i32 0
}

declare dso_local i32 @__isoc99_scanf(i8*, ...) #1

declare dso_local i32 @printf(i8*, ...) #1


!llvm.module.flags = !{!0}
!llvm.ident = !{!1}

!0 = !{i32 1, !"wchar_size", i32 4}
!1 = !{!"clang version 10.0.0-4ubuntu1 "}
